target datalayout = "e-m:e-p270:32:32-p271:32:32-p272:64:64-i64:64-i128:128-f80:128-n8:16:32:64-S128"
target triple = "x86_64-pc-linux-gnu"

%struct.dlist_node = type { ptr, ptr }
%struct.PGPROC = type { %struct.dlist_node, ptr, ptr, i32, %struct.Latch, i32, i32, i32, i32, %struct.anon, i32, i32, i32, i8, i8, i8, i8, %struct.proclist_node, %struct.proclist_node, ptr, ptr, i32, i32, %struct.pg_atomic_uint64, i32, i8, i64, i32, %struct.dlist_node, [16 x %struct.dlist_head], %struct.XidCacheStatus, %struct.XidCache, i8, %struct.pg_atomic_uint32, i32, i32, i8, %struct.pg_atomic_uint32, i32, i32, i64, i64, %struct.LWLock, ptr, ptr, i8, i32, ptr, %struct.dlist_head, %struct.dlist_node }
%struct.Latch = type { i32, i32, i8, i32 }
%struct.anon = type { i32, i32 }
%struct.proclist_node = type { i32, i32 }
%struct.pg_atomic_uint64 = type { i64 }
%struct.XidCacheStatus = type { i8, i8 }
%struct.XidCache = type { [64 x i32] }
%struct.pg_atomic_uint32 = type { i32 }
%struct.LWLock = type { i16, %struct.pg_atomic_uint32, %struct.proclist_head }
%struct.proclist_head = type { i32, i32 }
%struct.dlist_head = type { %struct.dlist_node }

@MyDatabaseId = external global i32, align 4
@.str.25 = private unnamed_addr constant [9 x i8] c"pg_temp_\00", align 1
@.str.26 = private unnamed_addr constant [15 x i8] c"pg_toast_temp_\00", align 1

; Function Attrs: inlinehint nounwind willreturn memory(read) uwtable
define available_externally i32 @atoi(ptr noundef nonnull %0) #9 {
  %2 = alloca ptr, align 8
  store ptr %0, ptr %2, align 8
  %3 = load ptr, ptr %2, align 8
  %4 = call i64 @strtol(ptr noundef %3, ptr noundef null, i32 noundef 10) #14
  %5 = trunc i64 %4 to i32
  ret i32 %5
}

; Function Attrs: nounwind uwtable
define dso_local i32 @GetTempNamespaceProcNumber(i32 noundef %0) #0 {
  %2 = alloca i32, align 4
  %3 = alloca i32, align 4
  %4 = alloca i32, align 4
  %5 = alloca ptr, align 8
  %6 = alloca i32, align 4
  store i32 %0, ptr %3, align 4
  call void @llvm.lifetime.start.p0(i64 4, ptr %4) #14
  call void @llvm.lifetime.start.p0(i64 8, ptr %5) #14
  %7 = load i32, ptr %3, align 4
  %8 = call ptr @get_namespace_name(i32 noundef %7)
  store ptr %8, ptr %5, align 8
  %9 = load ptr, ptr %5, align 8
  %10 = icmp ne ptr %9, null
  br i1 %10, label %12, label %11

11:                                               ; preds = %1
  store i32 -1, ptr %2, align 4
  store i32 1, ptr %6, align 4
  br label %33

12:                                               ; preds = %1
  %13 = load ptr, ptr %5, align 8
  %14 = call i32 @strncmp(ptr noundef %13, ptr noundef @.str.25, i64 noundef 8) #15
  %15 = icmp eq i32 %14, 0
  br i1 %15, label %16, label %20

16:                                               ; preds = %12
  %17 = load ptr, ptr %5, align 8
  %18 = getelementptr inbounds i8, ptr %17, i64 8
  %19 = call i32 @atoi(ptr noundef %18) #15
  store i32 %19, ptr %4, align 4
  br label %30

20:                                               ; preds = %12
  %21 = load ptr, ptr %5, align 8
  %22 = call i32 @strncmp(ptr noundef %21, ptr noundef @.str.26, i64 noundef 14) #15
  %23 = icmp eq i32 %22, 0
  br i1 %23, label %24, label %28

24:                                               ; preds = %20
  %25 = load ptr, ptr %5, align 8
  %26 = getelementptr inbounds i8, ptr %25, i64 14
  %27 = call i32 @atoi(ptr noundef %26) #15
  store i32 %27, ptr %4, align 4
  br label %29

28:                                               ; preds = %20
  store i32 -1, ptr %4, align 4
  br label %29

29:                                               ; preds = %28, %24
  br label %30

30:                                               ; preds = %29, %16
  %31 = load ptr, ptr %5, align 8
  call void @pfree(ptr noundef %31)
  %32 = load i32, ptr %4, align 4
  store i32 %32, ptr %2, align 4
  store i32 1, ptr %6, align 4
  br label %33

33:                                               ; preds = %30, %11
  call void @llvm.lifetime.end.p0(i64 8, ptr %5) #14
  call void @llvm.lifetime.end.p0(i64 4, ptr %4) #14
  %34 = load i32, ptr %2, align 4
  ret i32 %34
}

; Function Attrs: nounwind uwtable
define dso_local i32 @checkTempNamespaceStatus(i32 noundef %0) #0 {
  %2 = alloca i32, align 4
  %3 = alloca i32, align 4
  %4 = alloca ptr, align 8
  %5 = alloca i32, align 4
  %6 = alloca i32, align 4
  store i32 %0, ptr %3, align 4
  call void @llvm.lifetime.start.p0(i64 8, ptr %4) #14
  call void @llvm.lifetime.start.p0(i64 4, ptr %5) #14
  %7 = load i32, ptr %3, align 4
  %8 = call i32 @GetTempNamespaceProcNumber(i32 noundef %7)
  store i32 %8, ptr %5, align 4
  %9 = load i32, ptr %5, align 4
  %10 = icmp eq i32 %9, -1
  br i1 %10, label %11, label %12

11:                                               ; preds = %1
  store i32 0, ptr %2, align 4
  store i32 1, ptr %6, align 4
  br label %33

12:                                               ; preds = %1
  %13 = load i32, ptr %5, align 4
  %14 = call ptr @ProcNumberGetProc(i32 noundef %13)
  store ptr %14, ptr %4, align 8
  %15 = load ptr, ptr %4, align 8
  %16 = icmp eq ptr %15, null
  br i1 %16, label %17, label %18

17:                                               ; preds = %12
  store i32 1, ptr %2, align 4
  store i32 1, ptr %6, align 4
  br label %33

18:                                               ; preds = %12
  %19 = load ptr, ptr %4, align 8
  %20 = getelementptr inbounds nuw %struct.PGPROC, ptr %19, i32 0, i32 10
  %21 = load i32, ptr %20, align 4
  %22 = load i32, ptr @MyDatabaseId, align 4
  %23 = icmp ne i32 %21, %22
  br i1 %23, label %24, label %25

24:                                               ; preds = %18
  store i32 1, ptr %2, align 4
  store i32 1, ptr %6, align 4
  br label %33

25:                                               ; preds = %18
  %26 = load ptr, ptr %4, align 8
  %27 = getelementptr inbounds nuw %struct.PGPROC, ptr %26, i32 0, i32 12
  %28 = load i32, ptr %27, align 4
  %29 = load i32, ptr %3, align 4
  %30 = icmp ne i32 %28, %29
  br i1 %30, label %31, label %32

31:                                               ; preds = %25
  store i32 1, ptr %2, align 4
  store i32 1, ptr %6, align 4
  br label %33

32:                                               ; preds = %25
  store i32 2, ptr %2, align 4
  store i32 1, ptr %6, align 4
  br label %33

33:                                               ; preds = %32, %31, %24, %17, %11
  call void @llvm.lifetime.end.p0(i64 4, ptr %5) #14
  call void @llvm.lifetime.end.p0(i64 8, ptr %4) #14
  %34 = load i32, ptr %2, align 4
  ret i32 %34
}