; Function Attrs: nounwind uwtable
define dso_local range(i32 0, 3) i32 @checkTempNamespaceStatus(i32 noundef %0) local_unnamed_addr #0 {
  %2 = tail call ptr @get_namespace_name(i32 noundef %0) #19
  %.not.i = icmp eq ptr %2, null
  br i1 %.not.i, label %GetTempNamespaceProcNumber.exit.thread, label %3

3:                                                ; preds = %1
  %4 = tail call i32 @strncmp(ptr noundef nonnull dereferenceable(1) %2, ptr noundef nonnull dereferenceable(9) @.str.25, i64 noundef 8) #20
  %5 = icmp eq i32 %4, 0
  br i1 %5, label %GetTempNamespaceProcNumber.exit, label %6

6:                                                ; preds = %3
  %7 = tail call i32 @strncmp(ptr noundef nonnull dereferenceable(1) %2, ptr noundef nonnull dereferenceable(15) @.str.26, i64 noundef 14) #20
  %8 = icmp eq i32 %7, 0
  br i1 %8, label %GetTempNamespaceProcNumber.exit, label %GetTempNamespaceProcNumber.exit.thread11

GetTempNamespaceProcNumber.exit.thread11:         ; preds = %6
  tail call void @pfree(ptr noundef nonnull %2) #19
  br label %GetTempNamespaceProcNumber.exit.thread

GetTempNamespaceProcNumber.exit:                  ; preds = %3, %6
  %.sink.i = phi i64 [ 8, %3 ], [ 14, %6 ]
  %9 = getelementptr inbounds nuw i8, ptr %2, i64 %.sink.i
  %10 = tail call i64 @strtol(ptr noundef nonnull captures(none) %9, ptr noundef null, i32 noundef 10) #19
  %11 = trunc i64 %10 to i32
  tail call void @pfree(ptr noundef nonnull %2) #19
  %12 = icmp eq i32 %11, -1
  br i1 %12, label %GetTempNamespaceProcNumber.exit.thread, label %13

13:                                               ; preds = %GetTempNamespaceProcNumber.exit
  %14 = tail call ptr @ProcNumberGetProc(i32 noundef %11) #19
  %15 = icmp eq ptr %14, null
  br i1 %15, label %GetTempNamespaceProcNumber.exit.thread, label %16

16:                                               ; preds = %13
  %17 = getelementptr inbounds nuw i8, ptr %14, i64 76
  %18 = load i32, ptr %17, align 4
  %19 = load i32, ptr @MyDatabaseId, align 4
  %.not = icmp eq i32 %18, %19
  br i1 %.not, label %20, label %GetTempNamespaceProcNumber.exit.thread

20:                                               ; preds = %16
  %21 = getelementptr inbounds nuw i8, ptr %14, i64 84
  %22 = load i32, ptr %21, align 4
  %.not9 = icmp eq i32 %22, %0
  %. = select i1 %.not9, i32 2, i32 1
  br label %GetTempNamespaceProcNumber.exit.thread

GetTempNamespaceProcNumber.exit.thread:           ; preds = %1, %GetTempNamespaceProcNumber.exit.thread11, %20, %16, %13, %GetTempNamespaceProcNumber.exit
  %.0 = phi i32 [ 0, %GetTempNamespaceProcNumber.exit ], [ 1, %13 ], [ 1, %16 ], [ %., %20 ], [ 0, %GetTempNamespaceProcNumber.exit.thread11 ], [ 0, %1 ]
  ret i32 %.0
}